; Function Attrs: mustprogress nounwind uwtable
define hidden void @_ZN11JvmtiExport22expose_single_steppingEP10JavaThread(ptr noundef %0) local_unnamed_addr #1 align 2 {
  %2 = getelementptr inbounds i8, ptr %0, i64 1336
  %.08.i.i.i = load ptr, ptr %2, align 8
  %.not9.i.i.i = icmp eq ptr %.08.i.i.i, null
  br i1 %.not9.i.i.i, label %_ZN11JvmtiExport22get_jvmti_thread_stateEP10JavaThread.exit, label %.lr.ph.i.i.i

.lr.ph.i.i.i:                                     ; preds = %1, %5
  %.010.i.i.i = phi ptr [ %.0.i.i.i, %5 ], [ %.08.i.i.i, %1 ]
  %3 = getelementptr inbounds i8, ptr %.010.i.i.i, i64 32
  %4 = load i32, ptr %3, align 8
  %.not7.i.not.i.i = icmp eq i32 %4, 0
  br i1 %.not7.i.not.i.i, label %5, label %_ZNK10JavaThread18is_vthread_mountedEv.exit.i

5:                                                ; preds = %.lr.ph.i.i.i
  %6 = getelementptr inbounds i8, ptr %.010.i.i.i, i64 8
  %.0.i.i.i = load ptr, ptr %6, align 8
  %.not.i.i.i = icmp eq ptr %.0.i.i.i, null
  br i1 %.not.i.i.i, label %_ZN11JvmtiExport22get_jvmti_thread_stateEP10JavaThread.exit, label %.lr.ph.i.i.i, !llvm.loop !8

_ZNK10JavaThread18is_vthread_mountedEv.exit.i:    ; preds = %.lr.ph.i.i.i
  %7 = getelementptr inbounds i8, ptr %0, i64 1536
  %8 = load ptr, ptr %7, align 8
  %9 = icmp eq ptr %8, null
  br i1 %9, label %10, label %_ZN11JvmtiExport22get_jvmti_thread_stateEP10JavaThread.exit

10:                                               ; preds = %_ZNK10JavaThread18is_vthread_mountedEv.exit.i
  tail call void @_ZN20JvmtiEventController14thread_startedEP10JavaThread(ptr noundef nonnull %0) #19
  br label %_ZN11JvmtiExport22get_jvmti_thread_stateEP10JavaThread.exit

_ZN11JvmtiExport22get_jvmti_thread_stateEP10JavaThread.exit: ; preds = %5, %1, %_ZNK10JavaThread18is_vthread_mountedEv.exit.i, %10
  %11 = getelementptr inbounds i8, ptr %0, i64 1536
  %12 = load ptr, ptr %11, align 8
  %.not = icmp eq ptr %12, null
  br i1 %.not, label %_ZN16JvmtiThreadState26clear_hide_single_steppingEv.exit, label %13

13:                                               ; preds = %_ZN11JvmtiExport22get_jvmti_thread_stateEP10JavaThread.exit
  %14 = getelementptr inbounds i8, ptr %12, i64 40
  %15 = load i32, ptr %14, align 8
  %16 = icmp sgt i32 %15, 0
  br i1 %16, label %17, label %19

17:                                               ; preds = %13
  %18 = add nsw i32 %15, -1
  store i32 %18, ptr %14, align 8
  br label %_ZN16JvmtiThreadState26clear_hide_single_steppingEv.exit

19:                                               ; preds = %13
  %20 = getelementptr inbounds i8, ptr %12, i64 33
  store i8 0, ptr %20, align 1
  br label %_ZN16JvmtiThreadState26clear_hide_single_steppingEv.exit

_ZN16JvmtiThreadState26clear_hide_single_steppingEv.exit: ; preds = %19, %17, %_ZN11JvmtiExport22get_jvmti_thread_stateEP10JavaThread.exit
  ret void
}